; Function Attrs: mustprogress uwtable
define void @cvMaxS(ptr noundef %0, double noundef %1, ptr noundef %2) local_unnamed_addr #0 personality ptr @__gxx_personality_v0 {
  %4 = alloca %"class.cv::utils::trace::details::Region", align 8
  %5 = alloca double, align 8
  %6 = alloca %"class.cv::Mat", align 8
  %7 = alloca %"class.cv::Mat", align 8
  %8 = alloca %"class.std::__cxx11::basic_string", align 8
  %9 = alloca %"class.std::allocator", align 1
  %10 = alloca %"class.cv::_InputArray", align 8
  %11 = alloca %"class.cv::_InputArray", align 8
  %12 = alloca %"class.cv::_OutputArray", align 8
  store double %1, ptr %5, align 8
  call void @_ZN2cv10cvarrToMatEPKvbbiPNS_10AutoBufferIdLm136EEE(ptr dead_on_unwind nonnull writable sret(%"class.cv::Mat") align 8 %6, ptr noundef %0, i1 noundef zeroext false, i1 noundef zeroext true, i32 noundef 0, ptr noundef null)
  invoke void @_ZN2cv10cvarrToMatEPKvbbiPNS_10AutoBufferIdLm136EEE(ptr dead_on_unwind nonnull writable sret(%"class.cv::Mat") align 8 %7, ptr noundef %2, i1 noundef zeroext false, i1 noundef zeroext true, i32 noundef 0, ptr noundef null)
          to label %13 unwind label %23

13:                                               ; preds = %3
  %14 = getelementptr inbounds i8, ptr %6, i64 64
  %15 = getelementptr inbounds i8, ptr %7, i64 64
  %16 = call noundef zeroext i1 @_ZNK2cv7MatSizeeqERKS0_(ptr noundef nonnull align 8 dereferenceable(8) %14, ptr noundef nonnull align 8 dereferenceable(8) %15) #18
  br i1 %16, label %17, label %25

17:                                               ; preds = %13
  %18 = load i32, ptr %6, align 8
  %19 = load i32, ptr %7, align 8
  %20 = xor i32 %19, %18
  %21 = and i32 %20, 4095
  %22 = icmp eq i32 %21, 0
  br i1 %22, label %33, label %25

23:                                               ; preds = %3
  %24 = landingpad { ptr, i32 }
          cleanup
  br label %55

25:                                               ; preds = %17, %13
  call void @_ZNSaIcEC1Ev(ptr noundef nonnull align 1 dereferenceable(1) %9) #18
  invoke void @_ZNSt7__cxx1112basic_stringIcSt11char_traitsIcESaIcEEC1EPKcRKS3_(ptr noundef nonnull align 8 dereferenceable(32) %8, ptr noundef nonnull @.str.34, ptr noundef nonnull align 1 dereferenceable(1) %9)
          to label %26 unwind label %28

26:                                               ; preds = %25
  invoke void @_ZN2cv5errorEiRKNSt7__cxx1112basic_stringIcSt11char_traitsIcESaIcEEEPKcS9_i(i32 noundef -215, ptr noundef nonnull align 8 dereferenceable(32) %8, ptr noundef nonnull @__func__.cvMaxS, ptr noundef nonnull @.str.1, i32 noundef 2229) #19
          to label %27 unwind label %30

27:                                               ; preds = %26
  unreachable

28:                                               ; preds = %25
  %29 = landingpad { ptr, i32 }
          cleanup
  br label %32

30:                                               ; preds = %26
  %31 = landingpad { ptr, i32 }
          cleanup
  call void @_ZNSt7__cxx1112basic_stringIcSt11char_traitsIcESaIcEED1Ev(ptr noundef nonnull align 8 dereferenceable(32) %8) #18
  br label %32

32:                                               ; preds = %30, %28
  %.pn = phi { ptr, i32 } [ %31, %30 ], [ %29, %28 ]
  call void @_ZNSaIcED1Ev(ptr noundef nonnull align 1 dereferenceable(1) %9) #18
  br label %.body

33:                                               ; preds = %17
  %34 = getelementptr inbounds i8, ptr %10, i64 16
  store i32 0, ptr %34, align 8
  %35 = getelementptr inbounds i8, ptr %10, i64 20
  store i32 0, ptr %35, align 4
  store i32 16842752, ptr %10, align 8
  %36 = getelementptr inbounds i8, ptr %10, i64 8
  store ptr %6, ptr %36, align 8
  %37 = getelementptr inbounds i8, ptr %11, i64 16
  store i32 -1056833530, ptr %11, align 8
  %38 = getelementptr inbounds i8, ptr %11, i64 8
  store ptr %5, ptr %38, align 8
  store i64 4294967297, ptr %37, align 8
  %39 = getelementptr inbounds i8, ptr %12, i64 8
  %40 = getelementptr inbounds i8, ptr %12, i64 16
  store i64 0, ptr %40, align 8
  store i32 33619968, ptr %12, align 8
  store ptr %7, ptr %39, align 8
  call void @llvm.lifetime.start.p0(i64 16, ptr nonnull %4)
  invoke void @_ZN2cv5utils5trace7details6RegionC1ERKNS3_21LocationStaticStorageE(ptr noundef nonnull align 8 dereferenceable(12) %4, ptr noundef nonnull align 8 dereferenceable(32) @_ZZN2cv3maxERKNS_11_InputArrayES2_RKNS_12_OutputArrayEE25__cv_trace_location_fn394)
          to label %.noexc unwind label %53

.noexc:                                           ; preds = %33
  %41 = invoke noundef nonnull align 8 dereferenceable(24) ptr @_ZN2cv7noArrayEv()
          to label %42 unwind label %50

42:                                               ; preds = %.noexc
  invoke fastcc void @_ZN2cvL9binary_opERKNS_11_InputArrayES2_RKNS_12_OutputArrayES2_PKPFvPKhmS7_mPhmiiPvEbi(ptr noundef nonnull align 8 dereferenceable(24) %10, ptr noundef nonnull align 8 dereferenceable(24) %11, ptr noundef nonnull align 8 dereferenceable(24) %12, ptr noundef nonnull align 8 dereferenceable(24) %41, ptr noundef nonnull @_ZZN2cvL9getMaxTabEvE6maxTab, i1 noundef zeroext false, i32 noundef 14)
          to label %43 unwind label %50

43:                                               ; preds = %42
  %44 = getelementptr inbounds i8, ptr %4, i64 8
  %45 = load i32, ptr %44, align 8
  %.not.i.i = icmp eq i32 %45, 0
  br i1 %.not.i.i, label %52, label %46

46:                                               ; preds = %43
  invoke void @_ZN2cv5utils5trace7details6Region7destroyEv(ptr noundef nonnull align 8 dereferenceable(12) %4)
          to label %52 unwind label %47

47:                                               ; preds = %46
  %48 = landingpad { ptr, i32 }
          catch ptr null
  %49 = extractvalue { ptr, i32 } %48, 0
  call void @__clang_call_terminate(ptr %49) #17
  unreachable

50:                                               ; preds = %42, %.noexc
  %51 = landingpad { ptr, i32 }
          cleanup
  call void @_ZN2cv5utils5trace7details6RegionD2Ev(ptr noundef nonnull align 8 dereferenceable(12) %4) #18
  br label %.body

52:                                               ; preds = %46, %43
  call void @llvm.lifetime.end.p0(i64 16, ptr nonnull %4)
  call void @_ZN2cv3MatD1Ev(ptr noundef nonnull align 8 dereferenceable(96) %7) #18
  call void @_ZN2cv3MatD1Ev(ptr noundef nonnull align 8 dereferenceable(96) %6) #18
  ret void

53:                                               ; preds = %33
  %54 = landingpad { ptr, i32 }
          cleanup
  br label %.body

.body:                                            ; preds = %53, %50, %32
  %.pn9.pn.pn = phi { ptr, i32 } [ %.pn, %32 ], [ %54, %53 ], [ %51, %50 ]
  call void @_ZN2cv3MatD1Ev(ptr noundef nonnull align 8 dereferenceable(96) %7) #18
  br label %55

55:                                               ; preds = %.body, %23
  %.pn9.pn.pn.pn = phi { ptr, i32 } [ %.pn9.pn.pn, %.body ], [ %24, %23 ]
  call void @_ZN2cv3MatD1Ev(ptr noundef nonnull align 8 dereferenceable(96) %6) #18
  resume { ptr, i32 } %.pn9.pn.pn.pn
}